target datalayout = "e-m:e-p270:32:32-p271:32:32-p272:64:64-i64:64-i128:128-f80:128-n8:16:32:64-S128"
target triple = "x86_64-pc-linux-gnu"

%struct.expert_field = type { i32, i32 }

@hf_opcua_ArraySize = internal global i32 0, align 4
@ei_array_length = internal global %struct.expert_field zeroinitializer, align 4
@.str.209 = private unnamed_addr constant [16 x i8] c"%s: Array of %s\00", align 1
@.str.210 = private unnamed_addr constant [37 x i8] c"Array length %d too large to process\00", align 1
@.str.212 = private unnamed_addr constant [5 x i8] c"[%i]\00", align 1

; Function Attrs: null_pointer_is_valid sspstrong uwtable
define hidden void @parseArrayComplex(ptr noundef %0, ptr noundef %1, ptr noundef %2, ptr noundef %3, ptr noundef %4, ptr noundef %5, ptr noundef %6, i32 noundef %7) #0 {
  %9 = alloca ptr, align 8
  %10 = alloca ptr, align 8
  %11 = alloca ptr, align 8
  %12 = alloca ptr, align 8
  %13 = alloca ptr, align 8
  %14 = alloca ptr, align 8
  %15 = alloca ptr, align 8
  %16 = alloca i32, align 4
  %17 = alloca ptr, align 8
  %18 = alloca ptr, align 8
  %19 = alloca i32, align 4
  %20 = alloca i32, align 4
  %21 = alloca i32, align 4
  %22 = alloca [20 x i8], align 16
  store ptr %0, ptr %9, align 8
  store ptr %1, ptr %10, align 8
  store ptr %2, ptr %11, align 8
  store ptr %3, ptr %12, align 8
  store ptr %4, ptr %13, align 8
  store ptr %5, ptr %14, align 8
  store ptr %6, ptr %15, align 8
  store i32 %7, ptr %16, align 4
  call void @llvm.lifetime.start.p0(i64 8, ptr %17) #3
  call void @llvm.lifetime.start.p0(i64 8, ptr %18) #3
  %23 = load ptr, ptr %9, align 8
  %24 = load ptr, ptr %10, align 8
  %25 = load ptr, ptr %12, align 8
  %26 = load i32, ptr %25, align 4
  %27 = load i32, ptr %16, align 4
  %28 = load ptr, ptr %13, align 8
  %29 = load ptr, ptr %14, align 8
  %30 = call ptr (ptr, ptr, i32, i32, i32, ptr, ptr, ...) @proto_tree_add_subtree_format(ptr noundef %23, ptr noundef %24, i32 noundef %26, i32 noundef -1, i32 noundef %27, ptr noundef %17, ptr noundef @.str.209, ptr noundef %28, ptr noundef %29)
  store ptr %30, ptr %18, align 8
  call void @llvm.lifetime.start.p0(i64 4, ptr %19) #3
  call void @llvm.lifetime.start.p0(i64 4, ptr %20) #3
  %31 = load ptr, ptr %10, align 8
  %32 = load ptr, ptr %12, align 8
  %33 = load i32, ptr %32, align 4
  %34 = call i32 @tvb_get_letohl(ptr noundef %31, i32 noundef %33)
  store i32 %34, ptr %20, align 4
  %35 = load ptr, ptr %18, align 8
  %36 = load i32, ptr @hf_opcua_ArraySize, align 4
  %37 = load ptr, ptr %10, align 8
  %38 = load ptr, ptr %12, align 8
  %39 = load i32, ptr %38, align 4
  %40 = call ptr @proto_tree_add_item(ptr noundef %35, i32 noundef %36, ptr noundef %37, i32 noundef %39, i32 noundef 4, i32 noundef -2147483648)
  %41 = load i32, ptr %20, align 4
  %42 = icmp sgt i32 %41, 10000
  br i1 %42, label %43, label %51

43:                                               ; preds = %8
  %44 = load ptr, ptr %18, align 8
  %45 = load ptr, ptr %11, align 8
  %46 = load ptr, ptr %10, align 8
  %47 = load ptr, ptr %12, align 8
  %48 = load i32, ptr %47, align 4
  %49 = load i32, ptr %20, align 4
  %50 = call ptr (ptr, ptr, ptr, ptr, i32, i32, ptr, ...) @proto_tree_add_expert_format(ptr noundef %44, ptr noundef %45, ptr noundef @ei_array_length, ptr noundef %46, i32 noundef %48, i32 noundef 4, ptr noundef @.str.210, i32 noundef %49)
  store i32 1, ptr %21, align 4
  br label %77

51:                                               ; preds = %8
  %52 = load ptr, ptr %12, align 8
  %53 = load i32, ptr %52, align 4
  %54 = add i32 %53, 4
  store i32 %54, ptr %52, align 4
  store i32 0, ptr %19, align 4
  br label %55

55:                                               ; preds = %69, %51
  %56 = load i32, ptr %19, align 4
  %57 = load i32, ptr %20, align 4
  %58 = icmp slt i32 %56, %57
  br i1 %58, label %59, label %72

59:                                               ; preds = %55
  call void @llvm.lifetime.start.p0(i64 20, ptr %22) #3
  %60 = getelementptr inbounds [20 x i8], ptr %22, i64 0, i64 0
  %61 = load i32, ptr %19, align 4
  %62 = call i32 (ptr, i64, i32, i64, ptr, ...) @__snprintf_chk(ptr noundef %60, i64 noundef 20, i32 noundef 2, i64 noundef 20, ptr noundef @.str.212, i32 noundef %61)
  %63 = load ptr, ptr %15, align 8
  %64 = load ptr, ptr %18, align 8
  %65 = load ptr, ptr %10, align 8
  %66 = load ptr, ptr %11, align 8
  %67 = load ptr, ptr %12, align 8
  %68 = getelementptr inbounds [20 x i8], ptr %22, i64 0, i64 0
  call void %63(ptr noundef %64, ptr noundef %65, ptr noundef %66, ptr noundef %67, ptr noundef %68)
  call void @llvm.lifetime.end.p0(i64 20, ptr %22) #3
  br label %69

69:                                               ; preds = %59
  %70 = load i32, ptr %19, align 4
  %71 = add i32 %70, 1
  store i32 %71, ptr %19, align 4
  br label %55, !llvm.loop !9

72:                                               ; preds = %55
  %73 = load ptr, ptr %17, align 8
  %74 = load ptr, ptr %10, align 8
  %75 = load ptr, ptr %12, align 8
  %76 = load i32, ptr %75, align 4
  call void @proto_item_set_end(ptr noundef %73, ptr noundef %74, i32 noundef %76)
  store i32 0, ptr %21, align 4
  br label %77

77:                                               ; preds = %72, %43
  call void @llvm.lifetime.end.p0(i64 4, ptr %20) #3
  call void @llvm.lifetime.end.p0(i64 4, ptr %19) #3
  call void @llvm.lifetime.end.p0(i64 8, ptr %18) #3
  call void @llvm.lifetime.end.p0(i64 8, ptr %17) #3
  %78 = load i32, ptr %21, align 4
  switch i32 %78, label %80 [
    i32 0, label %79
    i32 1, label %79
  ]

79:                                               ; preds = %77, %77
  ret void

80:                                               ; preds = %77
  unreachable
}