; Function Attrs: null_pointer_is_valid sspstrong uwtable
define hidden void @parseArrayComplex(ptr noundef %0, ptr noundef %1, ptr noundef %2, ptr noundef %3, ptr noundef %4, ptr noundef %5, ptr noundef readonly captures(none) %6, i32 noundef %7) local_unnamed_addr #0 {
  %9 = alloca ptr, align 8
  %10 = alloca [20 x i8], align 16
  call void @llvm.lifetime.start.p0(i64 8, ptr nonnull %9) #4
  %11 = load i32, ptr %3, align 4
  %12 = call ptr (ptr, ptr, i32, i32, i32, ptr, ptr, ...) @proto_tree_add_subtree_format(ptr noundef %0, ptr noundef %1, i32 noundef %11, i32 noundef -1, i32 noundef %7, ptr noundef nonnull %9, ptr noundef nonnull @.str.209, ptr noundef %4, ptr noundef %5)
  %13 = load i32, ptr %3, align 4
  %14 = call i32 @tvb_get_letohl(ptr noundef %1, i32 noundef %13)
  %15 = load i32, ptr @hf_opcua_ArraySize, align 4
  %16 = load i32, ptr %3, align 4
  %17 = call ptr @proto_tree_add_item(ptr noundef %12, i32 noundef %15, ptr noundef %1, i32 noundef %16, i32 noundef 4, i32 noundef -2147483648)
  %18 = icmp sgt i32 %14, 10000
  %19 = load i32, ptr %3, align 4
  br i1 %18, label %20, label %22

20:                                               ; preds = %8
  %21 = call ptr (ptr, ptr, ptr, ptr, i32, i32, ptr, ...) @proto_tree_add_expert_format(ptr noundef %12, ptr noundef %2, ptr noundef nonnull @ei_array_length, ptr noundef %1, i32 noundef %19, i32 noundef 4, ptr noundef nonnull @.str.210, i32 noundef %14)
  br label %29

22:                                               ; preds = %8
  %23 = add i32 %19, 4
  store i32 %23, ptr %3, align 4
  %24 = icmp sgt i32 %14, 0
  br i1 %24, label %.lr.ph, label %._crit_edge

.lr.ph:                                           ; preds = %22, %.lr.ph
  %.029 = phi i32 [ %26, %.lr.ph ], [ 0, %22 ]
  call void @llvm.lifetime.start.p0(i64 20, ptr nonnull %10) #4
  %25 = call i32 (ptr, i64, i32, i64, ptr, ...) @__snprintf_chk(ptr noundef nonnull %10, i64 noundef 20, i32 noundef 2, i64 noundef 20, ptr noundef nonnull @.str.212, i32 noundef %.029)
  call void %6(ptr noundef %12, ptr noundef %1, ptr noundef %2, ptr noundef %3, ptr noundef nonnull %10)
  call void @llvm.lifetime.end.p0(i64 20, ptr nonnull %10) #4
  %26 = add nuw nsw i32 %.029, 1
  %exitcond.not = icmp eq i32 %26, %14
  br i1 %exitcond.not, label %._crit_edge.loopexit, label %.lr.ph, !llvm.loop !9

._crit_edge.loopexit:                             ; preds = %.lr.ph
  %.pre = load i32, ptr %3, align 4
  br label %._crit_edge

._crit_edge:                                      ; preds = %._crit_edge.loopexit, %22
  %27 = phi i32 [ %.pre, %._crit_edge.loopexit ], [ %23, %22 ]
  %28 = load ptr, ptr %9, align 8
  call void @proto_item_set_end(ptr noundef %28, ptr noundef %1, i32 noundef %27)
  br label %29

29:                                               ; preds = %._crit_edge, %20
  call void @llvm.lifetime.end.p0(i64 8, ptr nonnull %9) #4
  ret void
}